; ModuleID = '27/609.cpp'
source_filename = "27/609.cpp"
target datalayout = "e-m:e-p270:32:32-p271:32:32-p272:64:64-i64:64-f80:128-n8:16:32:64-S128"
target triple = "x86_64-pc-linux-gnu"

%"class.std::ios_base::Init" = type { i8 }
%"class.std::basic_istream" = type { i32 (...)**, i64, %"class.std::basic_ios" }
%"class.std::basic_ios" = type { %"class.std::ios_base", %"class.std::basic_ostream"*, i8, i8, %"class.std::basic_streambuf"*, %"class.std::ctype"*, %"class.std::num_put"*, %"class.std::num_get"* }
%"class.std::ios_base" = type { i32 (...)**, i64, i64, i32, i32, i32, %"struct.std::ios_base::_Callback_list"*, %"struct.std::ios_base::_Words", [8 x %"struct.std::ios_base::_Words"], i32, %"struct.std::ios_base::_Words"*, %"class.std::locale" }
%"struct.std::ios_base::_Callback_list" = type { %"struct.std::ios_base::_Callback_list"*, void (i32, %"class.std::ios_base"*, i32)*, i32, i32 }
%"struct.std::ios_base::_Words" = type { i8*, i64 }
%"class.std::locale" = type { %"class.std::locale::_Impl"* }
%"class.std::locale::_Impl" = type { i32, %"class.std::locale::facet"**, i64, %"class.std::locale::facet"**, i8** }
%"class.std::locale::facet" = type <{ i32 (...)**, i32, [4 x i8] }>
%"class.std::basic_ostream" = type { i32 (...)**, %"class.std::basic_ios" }
%"class.std::basic_streambuf" = type { i32 (...)**, i8*, i8*, i8*, i8*, i8*, i8*, %"class.std::locale" }
%"class.std::ctype" = type <{ %"class.std::locale::facet.base", [4 x i8], %struct.__locale_struct*, i8, [7 x i8], i32*, i32*, i16*, i8, [256 x i8], [256 x i8], i8, [6 x i8] }>
%"class.std::locale::facet.base" = type <{ i32 (...)**, i32 }>
%struct.__locale_struct = type { [13 x %struct.__locale_data*], i16*, i32*, i32*, [13 x i8*] }
%struct.__locale_data = type opaque
%"class.std::num_put" = type { %"class.std::locale::facet.base", [4 x i8] }
%"class.std::num_get" = type { %"class.std::locale::facet.base", [4 x i8] }

@_ZStL8__ioinit = internal global %"class.std::ios_base::Init" zeroinitializer, align 1
@__dso_handle = external hidden global i8
@_ZSt3cin = external dso_local global %"class.std::basic_istream", align 8
@.str = private unnamed_addr constant [17 x i8] c"x1=%.5f;x2=%.5f\0A\00", align 1
@.str.1 = private unnamed_addr constant [12 x i8] c"x1=x2=%.5f\0A\00", align 1
@.str.2 = private unnamed_addr constant [29 x i8] c"x1=%.5f+%.5fi;x2=%.5f-%.5fi\0A\00", align 1
@llvm.global_ctors = appending global [1 x { i32, void ()*, i8* }] [{ i32, void ()*, i8* } { i32 65535, void ()* @_GLOBAL__sub_I_609.cpp, i8* null }]

; Function Attrs: noinline uwtable
define internal void @__cxx_global_var_init() #0 section ".text.startup" {
  call void @_ZNSt8ios_base4InitC1Ev(%"class.std::ios_base::Init"* @_ZStL8__ioinit)
  %1 = call i32 @__cxa_atexit(void (i8*)* bitcast (void (%"class.std::ios_base::Init"*)* @_ZNSt8ios_base4InitD1Ev to void (i8*)*), i8* getelementptr inbounds (%"class.std::ios_base::Init", %"class.std::ios_base::Init"* @_ZStL8__ioinit, i32 0, i32 0), i8* @__dso_handle) #3
  ret void
}

declare dso_local void @_ZNSt8ios_base4InitC1Ev(%"class.std::ios_base::Init"*) unnamed_addr #1

; Function Attrs: nounwind
declare dso_local void @_ZNSt8ios_base4InitD1Ev(%"class.std::ios_base::Init"*) unnamed_addr #2

; Function Attrs: nounwind
declare dso_local i32 @__cxa_atexit(void (i8*)*, i8*, i8*) #3

; Function Attrs: noinline norecurse uwtable
define dso_local i32 @main() #4 {
  %1 = alloca i32, align 4
  %2 = alloca i32, align 4
  %3 = alloca i32, align 4
  %4 = alloca double, align 8
  %5 = alloca double, align 8
  %6 = alloca double, align 8
  %7 = alloca double, align 8
  %8 = alloca double, align 8
  store i32 0, i32* %1, align 4
  %9 = call dereferenceable(280) %"class.std::basic_istream"* @_ZNSirsERi(%"class.std::basic_istream"* @_ZSt3cin, i32* dereferenceable(4) %3)
  store i32 1, i32* %2, align 4
  br label %10

10:                                               ; preds = %129, %0
  %11 = load i32, i32* %2, align 4
  %12 = load i32, i32* %3, align 4
  %13 = icmp sle i32 %11, %12
  br i1 %13, label %14, label %132

14:                                               ; preds = %10
  %15 = call dereferenceable(280) %"class.std::basic_istream"* @_ZNSirsERd(%"class.std::basic_istream"* @_ZSt3cin, double* dereferenceable(8) %4)
  %16 = call dereferenceable(280) %"class.std::basic_istream"* @_ZNSirsERd(%"class.std::basic_istream"* %15, double* dereferenceable(8) %5)
  %17 = call dereferenceable(280) %"class.std::basic_istream"* @_ZNSirsERd(%"class.std::basic_istream"* %16, double* dereferenceable(8) %6)
  %18 = load double, double* %5, align 8
  %19 = load double, double* %5, align 8
  %20 = fmul double %18, %19
  %21 = load double, double* %4, align 8
  %22 = fmul double 4.000000e+00, %21
  %23 = load double, double* %6, align 8
  %24 = fmul double %22, %23
  %25 = fsub double %20, %24
  %26 = fcmp ogt double %25, 0.000000e+00
  br i1 %26, label %27, label %61

27:                                               ; preds = %14
  %28 = load double, double* %5, align 8
  %29 = fneg double %28
  %30 = load double, double* %5, align 8
  %31 = load double, double* %5, align 8
  %32 = fmul double %30, %31
  %33 = load double, double* %4, align 8
  %34 = fmul double 4.000000e+00, %33
  %35 = load double, double* %6, align 8
  %36 = fmul double %34, %35
  %37 = fsub double %32, %36
  %38 = call double @sqrt(double %37) #3
  %39 = fadd double %29, %38
  %40 = load double, double* %4, align 8
  %41 = fmul double 2.000000e+00, %40
  %42 = fdiv double %39, %41
  store double %42, double* %7, align 8
  %43 = load double, double* %5, align 8
  %44 = fneg double %43
  %45 = load double, double* %5, align 8
  %46 = load double, double* %5, align 8
  %47 = fmul double %45, %46
  %48 = load double, double* %4, align 8
  %49 = fmul double 4.000000e+00, %48
  %50 = load double, double* %6, align 8
  %51 = fmul double %49, %50
  %52 = fsub double %47, %51
  %53 = call double @sqrt(double %52) #3
  %54 = fsub double %44, %53
  %55 = load double, double* %4, align 8
  %56 = fmul double 2.000000e+00, %55
  %57 = fdiv double %54, %56
  store double %57, double* %8, align 8
  %58 = load double, double* %7, align 8
  %59 = load double, double* %8, align 8
  %60 = call i32 (i8*, ...) @printf(i8* getelementptr inbounds ([17 x i8], [17 x i8]* @.str, i64 0, i64 0), double %58, double %59)
  br label %61

61:                                               ; preds = %27, %14
  %62 = load double, double* %5, align 8
  %63 = load double, double* %5, align 8
  %64 = fmul double %62, %63
  %65 = load double, double* %4, align 8
  %66 = fmul double 4.000000e+00, %65
  %67 = load double, double* %6, align 8
  %68 = fmul double %66, %67
  %69 = fsub double %64, %68
  %70 = fcmp oeq double %69, 0.000000e+00
  br i1 %70, label %71, label %89

71:                                               ; preds = %61
  %72 = load double, double* %5, align 8
  %73 = fcmp une double %72, 0.000000e+00
  br i1 %73, label %74, label %80

74:                                               ; preds = %71
  %75 = load double, double* %5, align 8
  %76 = fneg double %75
  %77 = load double, double* %4, align 8
  %78 = fmul double 2.000000e+00, %77
  %79 = fdiv double %76, %78
  store double %79, double* %7, align 8
  br label %81

80:                                               ; preds = %71
  store double 0.000000e+00, double* %7, align 8
  br label %81

81:                                               ; preds = %80, %74
  %82 = load double, double* %5, align 8
  %83 = fneg double %82
  %84 = load double, double* %4, align 8
  %85 = fmul double 2.000000e+00, %84
  %86 = fdiv double %83, %85
  store double %86, double* %7, align 8
  %87 = load double, double* %7, align 8
  %88 = call i32 (i8*, ...) @printf(i8* getelementptr inbounds ([12 x i8], [12 x i8]* @.str.1, i64 0, i64 0), double %87)
  br label %89

89:                                               ; preds = %81, %61
  %90 = load double, double* %5, align 8
  %91 = load double, double* %5, align 8
  %92 = fmul double %90, %91
  %93 = load double, double* %4, align 8
  %94 = fmul double 4.000000e+00, %93
  %95 = load double, double* %6, align 8
  %96 = fmul double %94, %95
  %97 = fsub double %92, %96
  %98 = fcmp olt double %97, 0.000000e+00
  br i1 %98, label %99, label %128

99:                                               ; preds = %89
  %100 = load double, double* %5, align 8
  %101 = fcmp une double %100, 0.000000e+00
  br i1 %101, label %102, label %108

102:                                              ; preds = %99
  %103 = load double, double* %5, align 8
  %104 = fneg double %103
  %105 = load double, double* %4, align 8
  %106 = fmul double 2.000000e+00, %105
  %107 = fdiv double %104, %106
  store double %107, double* %7, align 8
  br label %109

108:                                              ; preds = %99
  store double 0.000000e+00, double* %7, align 8
  br label %109

109:                                              ; preds = %108, %102
  %110 = load double, double* %5, align 8
  %111 = fneg double %110
  %112 = load double, double* %5, align 8
  %113 = fmul double %111, %112
  %114 = load double, double* %4, align 8
  %115 = fmul double 4.000000e+00, %114
  %116 = load double, double* %6, align 8
  %117 = fmul double %115, %116
  %118 = fadd double %113, %117
  %119 = call double @sqrt(double %118) #3
  %120 = load double, double* %4, align 8
  %121 = fmul double 2.000000e+00, %120
  %122 = fdiv double %119, %121
  store double %122, double* %8, align 8
  %123 = load double, double* %7, align 8
  %124 = load double, double* %8, align 8
  %125 = load double, double* %7, align 8
  %126 = load double, double* %8, align 8
  %127 = call i32 (i8*, ...) @printf(i8* getelementptr inbounds ([29 x i8], [29 x i8]* @.str.2, i64 0, i64 0), double %123, double %124, double %125, double %126)
  br label %128

128:                                              ; preds = %109, %89
  br label %129

129:                                              ; preds = %128
  %130 = load i32, i32* %2, align 4
  %131 = add nsw i32 %130, 1
  store i32 %131, i32* %2, align 4
  br label %10

132:                                              ; preds = %10
  ret i32 0
}

declare dso_local dereferenceable(280) %"class.std::basic_istream"* @_ZNSirsERi(%"class.std::basic_istream"*, i32* dereferenceable(4)) #1

declare dso_local dereferenceable(280) %"class.std::basic_istream"* @_ZNSirsERd(%"class.std::basic_istream"*, double* dereferenceable(8)) #1

; Function Attrs: nounwind
declare dso_local double @sqrt(double) #2

declare dso_local i32 @printf(i8*, ...) #1

; Function Attrs: noinline uwtable
define internal void @_GLOBAL__sub_I_609.cpp() #0 section ".text.startup" {
  call void @__cxx_global_var_init()
  ret void
}


!llvm.module.flags = !{!0}
!llvm.ident = !{!1}

!0 = !{i32 1, !"wchar_size", i32 4}
!1 = !{!"clang version 10.0.0-4ubuntu1 "}
