; ModuleID = 'source-C-CXX/26/609.cpp'
source_filename = "source-C-CXX/26/609.cpp"
target datalayout = "e-m:e-p270:32:32-p271:32:32-p272:64:64-i64:64-f80:128-n8:16:32:64-S128"
target triple = "x86_64-pc-linux-gnu"

%"class.std::ios_base::Init" = type { i8 }
%"class.std::basic_istream" = type { i32 (...)**, i64, %"class.std::basic_ios" }
%"class.std::basic_ios" = type { %"class.std::ios_base", %"class.std::basic_ostream"*, i8, i8, %"class.std::basic_streambuf"*, %"class.std::ctype"*, %"class.std::num_put"*, %"class.std::num_get"* }
%"class.std::ios_base" = type { i32 (...)**, i64, i64, i32, i32, i32, %"struct.std::ios_base::_Callback_list"*, %"struct.std::ios_base::_Words", [8 x %"struct.std::ios_base::_Words"], i32, %"struct.std::ios_base::_Words"*, %"class.std::locale" }
%"struct.std::ios_base::_Callback_list" = type { %"struct.std::ios_base::_Callback_list"*, void (i32, %"class.std::ios_base"*, i32)*, i32, i32 }
%"struct.std::ios_base::_Words" = type { i8*, i64 }
%"class.std::locale" = type { %"class.std::locale::_Impl"* }
%"class.std::locale::_Impl" = type { i32, %"class.std::locale::facet"**, i64, %"class.std::locale::facet"**, i8** }
%"class.std::locale::facet" = type <{ i32 (...)**, i32, [4 x i8] }>
%"class.std::basic_ostream" = type { i32 (...)**, %"class.std::basic_ios" }
%"class.std::basic_streambuf" = type { i32 (...)**, i8*, i8*, i8*, i8*, i8*, i8*, %"class.std::locale" }
%"class.std::ctype" = type <{ %"class.std::locale::facet.base", [4 x i8], %struct.__locale_struct*, i8, [7 x i8], i32*, i32*, i16*, i8, [256 x i8], [256 x i8], i8, [6 x i8] }>
%"class.std::locale::facet.base" = type <{ i32 (...)**, i32 }>
%struct.__locale_struct = type { [13 x %struct.__locale_data*], i16*, i32*, i32*, [13 x i8*] }
%struct.__locale_data = type opaque
%"class.std::num_put" = type { %"class.std::locale::facet.base", [4 x i8] }
%"class.std::num_get" = type { %"class.std::locale::facet.base", [4 x i8] }

@_ZStL8__ioinit = internal global %"class.std::ios_base::Init" zeroinitializer, align 1
@__dso_handle = external hidden global i8
@_ZSt3cin = external global %"class.std::basic_istream", align 8
@.str = private unnamed_addr constant [17 x i8] c"x1=%.5f;x2=%.5f\0A\00", align 1
@.str.1 = private unnamed_addr constant [12 x i8] c"x1=x2=%.5f\0A\00", align 1
@.str.2 = private unnamed_addr constant [29 x i8] c"x1=%.5f+%.5fi;x2=%.5f-%.5fi\0A\00", align 1
@llvm.global_ctors = appending global [1 x { i32, void ()*, i8* }] [{ i32, void ()*, i8* } { i32 65535, void ()* @_GLOBAL__sub_I_609.cpp, i8* null }]

declare void @_ZNSt8ios_base4InitC1Ev(%"class.std::ios_base::Init"* nonnull align 1 dereferenceable(1)) unnamed_addr #0

; Function Attrs: nounwind
declare void @_ZNSt8ios_base4InitD1Ev(%"class.std::ios_base::Init"* nonnull align 1 dereferenceable(1)) unnamed_addr #1

; Function Attrs: nofree nounwind
declare i32 @__cxa_atexit(void (i8*)*, i8*, i8*) local_unnamed_addr #2

; Function Attrs: mustprogress norecurse sspstrong uwtable
define dso_local i32 @main() local_unnamed_addr #3 {
  %1 = alloca i32, align 4
  %2 = alloca double, align 8
  %3 = alloca double, align 8
  %4 = alloca double, align 8
  %5 = bitcast i32* %1 to i8*
  call void @llvm.lifetime.start.p0i8(i64 4, i8* nonnull %5) #8
  %6 = bitcast double* %2 to i8*
  call void @llvm.lifetime.start.p0i8(i64 8, i8* nonnull %6) #8
  %7 = bitcast double* %3 to i8*
  call void @llvm.lifetime.start.p0i8(i64 8, i8* nonnull %7) #8
  %8 = bitcast double* %4 to i8*
  call void @llvm.lifetime.start.p0i8(i64 8, i8* nonnull %8) #8
  %9 = call nonnull align 8 dereferenceable(16) %"class.std::basic_istream"* @_ZNSirsERi(%"class.std::basic_istream"* nonnull align 8 dereferenceable(16) @_ZSt3cin, i32* nonnull align 4 dereferenceable(4) %1)
  %10 = load i32, i32* %1, align 4, !tbaa !5
  %11 = icmp slt i32 %10, 1
  br i1 %11, label %95, label %12

12:                                               ; preds = %0, %91
  %13 = phi i32 [ %92, %91 ], [ 1, %0 ]
  %14 = call nonnull align 8 dereferenceable(16) %"class.std::basic_istream"* @_ZNSi10_M_extractIdEERSiRT_(%"class.std::basic_istream"* nonnull align 8 dereferenceable(16) @_ZSt3cin, double* nonnull align 8 dereferenceable(8) %2)
  %15 = call nonnull align 8 dereferenceable(16) %"class.std::basic_istream"* @_ZNSi10_M_extractIdEERSiRT_(%"class.std::basic_istream"* nonnull align 8 dereferenceable(16) %14, double* nonnull align 8 dereferenceable(8) %3)
  %16 = call nonnull align 8 dereferenceable(16) %"class.std::basic_istream"* @_ZNSi10_M_extractIdEERSiRT_(%"class.std::basic_istream"* nonnull align 8 dereferenceable(16) %15, double* nonnull align 8 dereferenceable(8) %4)
  %17 = load double, double* %3, align 8, !tbaa !9
  %18 = fmul double %17, %17
  %19 = load double, double* %2, align 8, !tbaa !9
  %20 = fmul double %19, 4.000000e+00
  %21 = load double, double* %4, align 8, !tbaa !9
  %22 = fmul double %20, %21
  %23 = fsub double %18, %22
  %24 = fcmp ogt double %23, 0.000000e+00
  br i1 %24, label %25, label %51

25:                                               ; preds = %12
  %26 = call double @sqrt(double %23) #8
  %27 = fsub double %26, %17
  %28 = load double, double* %2, align 8, !tbaa !9
  %29 = fmul double %28, 2.000000e+00
  %30 = fdiv double %27, %29
  %31 = load double, double* %3, align 8, !tbaa !9
  %32 = fneg double %31
  %33 = fmul double %31, %31
  %34 = fmul double %28, 4.000000e+00
  %35 = load double, double* %4, align 8, !tbaa !9
  %36 = fmul double %34, %35
  %37 = fsub double %33, %36
  %38 = call double @sqrt(double %37) #8
  %39 = fsub double %32, %38
  %40 = load double, double* %2, align 8, !tbaa !9
  %41 = fmul double %40, 2.000000e+00
  %42 = fdiv double %39, %41
  %43 = call i32 (i8*, ...) @printf(i8* nonnull dereferenceable(1) getelementptr inbounds ([17 x i8], [17 x i8]* @.str, i64 0, i64 0), double %30, double %42)
  %44 = load double, double* %3, align 8, !tbaa !9
  %45 = load double, double* %2, align 8, !tbaa !9
  %46 = load double, double* %4, align 8, !tbaa !9
  %47 = fmul double %44, %44
  %48 = fmul double %45, 4.000000e+00
  %49 = fmul double %48, %46
  %50 = fsub double %47, %49
  br label %51

51:                                               ; preds = %25, %12
  %52 = phi double [ %50, %25 ], [ %23, %12 ]
  %53 = phi double [ %49, %25 ], [ %22, %12 ]
  %54 = phi double [ %47, %25 ], [ %18, %12 ]
  %55 = phi double [ %45, %25 ], [ %19, %12 ]
  %56 = phi double [ %44, %25 ], [ %17, %12 ]
  %57 = fcmp oeq double %52, 0.000000e+00
  br i1 %57, label %58, label %70

58:                                               ; preds = %51
  %59 = fneg double %56
  %60 = fmul double %55, 2.000000e+00
  %61 = fdiv double %59, %60
  %62 = call i32 (i8*, ...) @printf(i8* nonnull dereferenceable(1) getelementptr inbounds ([12 x i8], [12 x i8]* @.str.1, i64 0, i64 0), double %61)
  %63 = load double, double* %3, align 8, !tbaa !9
  %64 = load double, double* %2, align 8, !tbaa !9
  %65 = load double, double* %4, align 8, !tbaa !9
  %66 = fmul double %63, %63
  %67 = fmul double %64, 4.000000e+00
  %68 = fmul double %67, %65
  %69 = fsub double %66, %68
  br label %70

70:                                               ; preds = %58, %51
  %71 = phi double [ %69, %58 ], [ %52, %51 ]
  %72 = phi double [ %68, %58 ], [ %53, %51 ]
  %73 = phi double [ %66, %58 ], [ %54, %51 ]
  %74 = phi double [ %64, %58 ], [ %55, %51 ]
  %75 = phi double [ %63, %58 ], [ %56, %51 ]
  %76 = fcmp olt double %71, 0.000000e+00
  br i1 %76, label %77, label %91

77:                                               ; preds = %70
  %78 = fcmp une double %75, 0.000000e+00
  br i1 %78, label %79, label %83

79:                                               ; preds = %77
  %80 = fneg double %75
  %81 = fmul double %74, 2.000000e+00
  %82 = fdiv double %80, %81
  br label %83

83:                                               ; preds = %77, %79
  %84 = phi double [ %82, %79 ], [ 0.000000e+00, %77 ]
  %85 = fsub double %72, %73
  %86 = call double @sqrt(double %85) #8
  %87 = load double, double* %2, align 8, !tbaa !9
  %88 = fmul double %87, 2.000000e+00
  %89 = fdiv double %86, %88
  %90 = call i32 (i8*, ...) @printf(i8* nonnull dereferenceable(1) getelementptr inbounds ([29 x i8], [29 x i8]* @.str.2, i64 0, i64 0), double %84, double %89, double %84, double %89)
  br label %91

91:                                               ; preds = %70, %83
  %92 = add nuw nsw i32 %13, 1
  %93 = load i32, i32* %1, align 4, !tbaa !5
  %94 = icmp slt i32 %13, %93
  br i1 %94, label %12, label %95, !llvm.loop !11

95:                                               ; preds = %91, %0
  call void @llvm.lifetime.end.p0i8(i64 8, i8* nonnull %8) #8
  call void @llvm.lifetime.end.p0i8(i64 8, i8* nonnull %7) #8
  call void @llvm.lifetime.end.p0i8(i64 8, i8* nonnull %6) #8
  call void @llvm.lifetime.end.p0i8(i64 4, i8* nonnull %5) #8
  ret i32 0
}

; Function Attrs: argmemonly mustprogress nofree nosync nounwind willreturn
declare void @llvm.lifetime.start.p0i8(i64 immarg, i8* nocapture) #4

declare nonnull align 8 dereferenceable(16) %"class.std::basic_istream"* @_ZNSirsERi(%"class.std::basic_istream"* nonnull align 8 dereferenceable(16), i32* nonnull align 4 dereferenceable(4)) local_unnamed_addr #0

; Function Attrs: mustprogress nofree nounwind willreturn
declare double @sqrt(double) local_unnamed_addr #5

; Function Attrs: nofree nounwind
declare noundef i32 @printf(i8* nocapture noundef readonly, ...) local_unnamed_addr #6

; Function Attrs: argmemonly mustprogress nofree nosync nounwind willreturn
declare void @llvm.lifetime.end.p0i8(i64 immarg, i8* nocapture) #4

declare nonnull align 8 dereferenceable(16) %"class.std::basic_istream"* @_ZNSi10_M_extractIdEERSiRT_(%"class.std::basic_istream"* nonnull align 8 dereferenceable(16), double* nonnull align 8 dereferenceable(8)) local_unnamed_addr #0

; Function Attrs: sspstrong uwtable
define internal void @_GLOBAL__sub_I_609.cpp() #7 section ".text.startup" {
  tail call void @_ZNSt8ios_base4InitC1Ev(%"class.std::ios_base::Init"* nonnull align 1 dereferenceable(1) @_ZStL8__ioinit)
  %1 = tail call i32 @__cxa_atexit(void (i8*)* bitcast (void (%"class.std::ios_base::Init"*)* @_ZNSt8ios_base4InitD1Ev to void (i8*)*), i8* getelementptr inbounds (%"class.std::ios_base::Init", %"class.std::ios_base::Init"* @_ZStL8__ioinit, i64 0, i32 0), i8* nonnull @__dso_handle) #8
  ret void
}


!llvm.module.flags = !{!0, !1, !2, !3}
!llvm.ident = !{!4}

!0 = !{i32 1, !"wchar_size", i32 4}
!1 = !{i32 7, !"PIC Level", i32 2}
!2 = !{i32 7, !"PIE Level", i32 2}
!3 = !{i32 7, !"uwtable", i32 1}
!4 = !{!"clang version 13.0.0"}
!5 = !{!6, !6, i64 0}
!6 = !{!"int", !7, i64 0}
!7 = !{!"omnipotent char", !8, i64 0}
!8 = !{!"Simple C++ TBAA"}
!9 = !{!10, !10, i64 0}
!10 = !{!"double", !7, i64 0}
!11 = distinct !{!11, !12}
!12 = !{!"llvm.loop.mustprogress"}
